; Function Attrs: mustprogress uwtable
define hidden noundef zeroext i1 @_ZNK13proof_checker11match_proofEPK3appR10ref_vectorIS0_11ast_managerE(ptr nocapture noundef nonnull readonly align 8 dereferenceable(156) %this, ptr nocapture noundef readonly %p, ptr noundef nonnull align 8 dereferenceable(16) %parents) local_unnamed_addr #4 align 2 {
entry:
  %m_kind.i.i.i = getelementptr inbounds i8, ptr %p, i64 4
  %bf.load.i.i.i = load i32, ptr %m_kind.i.i.i, align 4
  %bf.clear.i.i.i = and i32 %bf.load.i.i.i, 65535
  %cmp.i.i = icmp eq i32 %bf.clear.i.i.i, 0
  br i1 %cmp.i.i, label %_ZNK11ast_manager8is_proofEPK4expr.exit, label %return

_ZNK11ast_manager8is_proofEPK4expr.exit:          ; preds = %entry
  %0 = load ptr, ptr %this, align 8
  %m_decl.i.i = getelementptr inbounds i8, ptr %p, i64 16
  %1 = load ptr, ptr %m_decl.i.i, align 8
  %m_range.i.i = getelementptr inbounds i8, ptr %1, i64 40
  %2 = load ptr, ptr %m_range.i.i, align 8
  %m_proof_sort.i = getelementptr inbounds i8, ptr %0, i64 848
  %3 = load ptr, ptr %m_proof_sort.i, align 8
  %cmp.i = icmp eq ptr %2, %3
  br i1 %cmp.i, label %for.cond.preheader, label %return

for.cond.preheader:                               ; preds = %_ZNK11ast_manager8is_proofEPK4expr.exit
  %m_num_args.i.i = getelementptr inbounds i8, ptr %p, i64 24
  %m_args.i.i.i = getelementptr inbounds i8, ptr %p, i64 32
  %m_nodes.i = getelementptr inbounds i8, ptr %parents, i64 8
  br label %for.cond

for.cond:                                         ; preds = %for.cond.preheader, %_ZN15ref_vector_coreI3app19ref_manager_wrapperIS0_11ast_managerEE9push_backEPS0_.exit
  %indvars.iv = phi i64 [ 0, %for.cond.preheader ], [ %indvars.iv.next, %_ZN15ref_vector_coreI3app19ref_manager_wrapperIS0_11ast_managerEE9push_backEPS0_.exit ]
  %4 = load i32, ptr %m_num_args.i.i, align 8
  %cmp.not.i.i = icmp eq i32 %4, 0
  br i1 %cmp.not.i.i, label %_ZNK11ast_manager15get_num_parentsEPK3app.exit, label %land.rhs.i.i

land.rhs.i.i:                                     ; preds = %for.cond
  %5 = load ptr, ptr %this, align 8
  %sub.i.i = add i32 %4, -1
  %idxprom.i.i.i = zext i32 %sub.i.i to i64
  %arrayidx.i.i.i = getelementptr inbounds [0 x ptr], ptr %m_args.i.i.i, i64 0, i64 %idxprom.i.i.i
  %6 = load ptr, ptr %arrayidx.i.i.i, align 8
  %call3.i.i = tail call noundef ptr @_ZNK4expr8get_sortEv(ptr noundef nonnull align 4 dereferenceable(16) %6)
  %m_proof_sort.i.i = getelementptr inbounds i8, ptr %5, i64 848
  %7 = load ptr, ptr %m_proof_sort.i.i, align 8
  %cmp4.i.i = icmp ne ptr %call3.i.i, %7
  %8 = sext i1 %cmp4.i.i to i32
  br label %_ZNK11ast_manager15get_num_parentsEPK3app.exit

_ZNK11ast_manager15get_num_parentsEPK3app.exit:   ; preds = %for.cond, %land.rhs.i.i
  %sub.i = phi i32 [ 0, %for.cond ], [ %8, %land.rhs.i.i ]
  %cond.i = add i32 %sub.i, %4
  %9 = zext i32 %cond.i to i64
  %cmp = icmp ult i64 %indvars.iv, %9
  br i1 %cmp, label %for.body, label %return

for.body:                                         ; preds = %_ZNK11ast_manager15get_num_parentsEPK3app.exit
  %arrayidx.i.i = getelementptr inbounds [0 x ptr], ptr %m_args.i.i.i, i64 0, i64 %indvars.iv
  %10 = load ptr, ptr %arrayidx.i.i, align 8
  %tobool.not.i.i.i.i = icmp eq ptr %10, null
  br i1 %tobool.not.i.i.i.i, label %_ZN15ref_vector_coreI3app19ref_manager_wrapperIS0_11ast_managerEE7inc_refEPS0_.exit.i, label %if.then.i.i.i.i

if.then.i.i.i.i:                                  ; preds = %for.body
  %m_ref_count.i.i.i.i.i = getelementptr inbounds i8, ptr %10, i64 8
  %11 = load i32, ptr %m_ref_count.i.i.i.i.i, align 4
  %inc.i.i.i.i.i = add i32 %11, 1
  store i32 %inc.i.i.i.i.i, ptr %m_ref_count.i.i.i.i.i, align 4
  br label %_ZN15ref_vector_coreI3app19ref_manager_wrapperIS0_11ast_managerEE7inc_refEPS0_.exit.i

_ZN15ref_vector_coreI3app19ref_manager_wrapperIS0_11ast_managerEE7inc_refEPS0_.exit.i: ; preds = %if.then.i.i.i.i, %for.body
  %12 = load ptr, ptr %m_nodes.i, align 8
  %cmp.i.i5 = icmp eq ptr %12, null
  br i1 %cmp.i.i5, label %if.then.i.i, label %lor.lhs.false.i.i

lor.lhs.false.i.i:                                ; preds = %_ZN15ref_vector_coreI3app19ref_manager_wrapperIS0_11ast_managerEE7inc_refEPS0_.exit.i
  %arrayidx.i.i6 = getelementptr inbounds i8, ptr %12, i64 -4
  %13 = load i32, ptr %arrayidx.i.i6, align 4
  %arrayidx4.i.i = getelementptr inbounds i8, ptr %12, i64 -8
  %14 = load i32, ptr %arrayidx4.i.i, align 4
  %cmp5.i.i = icmp eq i32 %13, %14
  br i1 %cmp5.i.i, label %if.then.i.i, label %_ZN15ref_vector_coreI3app19ref_manager_wrapperIS0_11ast_managerEE9push_backEPS0_.exit

if.then.i.i:                                      ; preds = %lor.lhs.false.i.i, %_ZN15ref_vector_coreI3app19ref_manager_wrapperIS0_11ast_managerEE7inc_refEPS0_.exit.i
  tail call void @_ZN6vectorIP3appLb0EjE13expand_vectorEv(ptr noundef nonnull align 8 dereferenceable(8) %m_nodes.i)
  %.pre.i.i = load ptr, ptr %m_nodes.i, align 8
  %arrayidx8.phi.trans.insert.i.i = getelementptr inbounds i8, ptr %.pre.i.i, i64 -4
  %.pre1.i.i = load i32, ptr %arrayidx8.phi.trans.insert.i.i, align 4
  br label %_ZN15ref_vector_coreI3app19ref_manager_wrapperIS0_11ast_managerEE9push_backEPS0_.exit

_ZN15ref_vector_coreI3app19ref_manager_wrapperIS0_11ast_managerEE9push_backEPS0_.exit: ; preds = %lor.lhs.false.i.i, %if.then.i.i
  %15 = phi i32 [ %.pre1.i.i, %if.then.i.i ], [ %13, %lor.lhs.false.i.i ]
  %16 = phi ptr [ %.pre.i.i, %if.then.i.i ], [ %12, %lor.lhs.false.i.i ]
  %idx.ext.i.i = zext i32 %15 to i64
  %add.ptr.i.i = getelementptr inbounds ptr, ptr %16, i64 %idx.ext.i.i
  store ptr %10, ptr %add.ptr.i.i, align 8
  %17 = load ptr, ptr %m_nodes.i, align 8
  %arrayidx10.i.i = getelementptr inbounds i8, ptr %17, i64 -4
  %18 = load i32, ptr %arrayidx10.i.i, align 4
  %inc.i.i = add i32 %18, 1
  store i32 %inc.i.i, ptr %arrayidx10.i.i, align 4
  %indvars.iv.next = add nuw nsw i64 %indvars.iv, 1
  br label %for.cond, !llvm.loop !10

return:                                           ; preds = %_ZNK11ast_manager15get_num_parentsEPK3app.exit, %entry, %_ZNK11ast_manager8is_proofEPK4expr.exit
  %19 = phi i1 [ false, %_ZNK11ast_manager8is_proofEPK4expr.exit ], [ false, %entry ], [ true, %_ZNK11ast_manager15get_num_parentsEPK3app.exit ]
  ret i1 %19
}